target datalayout = "e-m:e-p270:32:32-p271:32:32-p272:64:64-i64:64-i128:128-f80:128-n8:16:32:64-S128"
target triple = "x86_64-pc-linux-gnu"

%struct.ec_group_st = type { ptr, ptr, ptr, ptr, i32, i32, i32, i32, ptr, i64, ptr, [6 x i32], ptr, ptr, i32, ptr, ptr, ptr, ptr, i32, %union.anon, ptr, ptr }
%union.anon = type { ptr }

@.str = private unnamed_addr constant [31 x i8] c"../openssl/crypto/ec/ecp_oct.c\00", align 1
@__func__.ossl_ec_GFp_simple_point2oct = private unnamed_addr constant [29 x i8] c"ossl_ec_GFp_simple_point2oct\00", align 1

; Function Attrs: nounwind uwtable
define i64 @ossl_ec_GFp_simple_point2oct(ptr noundef %0, ptr noundef %1, i32 noundef %2, ptr noundef %3, i64 noundef %4, ptr noundef %5) #0 {
  %7 = alloca i64, align 8
  %8 = alloca ptr, align 8
  %9 = alloca ptr, align 8
  %10 = alloca i32, align 4
  %11 = alloca ptr, align 8
  %12 = alloca i64, align 8
  %13 = alloca ptr, align 8
  %14 = alloca i64, align 8
  %15 = alloca ptr, align 8
  %16 = alloca i32, align 4
  %17 = alloca ptr, align 8
  %18 = alloca ptr, align 8
  %19 = alloca i64, align 8
  %20 = alloca i64, align 8
  %21 = alloca i64, align 8
  %22 = alloca i32, align 4
  store ptr %0, ptr %8, align 8, !tbaa !3
  store ptr %1, ptr %9, align 8, !tbaa !8
  store i32 %2, ptr %10, align 4, !tbaa !12
  store ptr %3, ptr %11, align 8, !tbaa !33
  store i64 %4, ptr %12, align 8, !tbaa !32
  store ptr %5, ptr %13, align 8, !tbaa !14
  call void @llvm.lifetime.start.p0(i64 8, ptr %14) #4
  call void @llvm.lifetime.start.p0(i64 8, ptr %15) #4
  store ptr null, ptr %15, align 8, !tbaa !14
  call void @llvm.lifetime.start.p0(i64 4, ptr %16) #4
  store i32 0, ptr %16, align 4, !tbaa !12
  call void @llvm.lifetime.start.p0(i64 8, ptr %17) #4
  call void @llvm.lifetime.start.p0(i64 8, ptr %18) #4
  call void @llvm.lifetime.start.p0(i64 8, ptr %19) #4
  call void @llvm.lifetime.start.p0(i64 8, ptr %20) #4
  call void @llvm.lifetime.start.p0(i64 8, ptr %21) #4
  %23 = load i32, ptr %10, align 4, !tbaa !12
  %24 = icmp ne i32 %23, 2
  br i1 %24, label %25, label %32

25:                                               ; preds = %6
  %26 = load i32, ptr %10, align 4, !tbaa !12
  %27 = icmp ne i32 %26, 4
  br i1 %27, label %28, label %32

28:                                               ; preds = %25
  %29 = load i32, ptr %10, align 4, !tbaa !12
  %30 = icmp ne i32 %29, 6
  br i1 %30, label %31, label %32

31:                                               ; preds = %28
  call void @ERR_new()
  call void @ERR_set_debug(ptr noundef @.str, i32 noundef 172, ptr noundef @__func__.ossl_ec_GFp_simple_point2oct)
  call void (i32, i32, ptr, ...) @ERR_set_error(i32 noundef 16, i32 noundef 104, ptr noundef null)
  br label %216

32:                                               ; preds = %28, %25, %6
  %33 = load ptr, ptr %8, align 8, !tbaa !3
  %34 = load ptr, ptr %9, align 8, !tbaa !8
  %35 = call i32 @EC_POINT_is_at_infinity(ptr noundef %33, ptr noundef %34)
  %36 = icmp ne i32 %35, 0
  br i1 %36, label %37, label %48

37:                                               ; preds = %32
  %38 = load ptr, ptr %11, align 8, !tbaa !33
  %39 = icmp ne ptr %38, null
  br i1 %39, label %40, label %47

40:                                               ; preds = %37
  %41 = load i64, ptr %12, align 8, !tbaa !32
  %42 = icmp ult i64 %41, 1
  br i1 %42, label %43, label %44

43:                                               ; preds = %40
  call void @ERR_new()
  call void @ERR_set_debug(ptr noundef @.str, i32 noundef 180, ptr noundef @__func__.ossl_ec_GFp_simple_point2oct)
  call void (i32, i32, ptr, ...) @ERR_set_error(i32 noundef 16, i32 noundef 100, ptr noundef null)
  store i64 0, ptr %7, align 8
  store i32 1, ptr %22, align 4
  br label %223

44:                                               ; preds = %40
  %45 = load ptr, ptr %11, align 8, !tbaa !33
  %46 = getelementptr inbounds i8, ptr %45, i64 0
  store i8 0, ptr %46, align 1, !tbaa !34
  br label %47

47:                                               ; preds = %44, %37
  store i64 1, ptr %7, align 8
  store i32 1, ptr %22, align 4
  br label %223

48:                                               ; preds = %32
  %49 = load ptr, ptr %8, align 8, !tbaa !3
  %50 = getelementptr inbounds nuw %struct.ec_group_st, ptr %49, i32 0, i32 10
  %51 = load ptr, ptr %50, align 8, !tbaa !23
  %52 = call i32 @BN_num_bits(ptr noundef %51)
  %53 = add nsw i32 %52, 7
  %54 = sdiv i32 %53, 8
  %55 = sext i32 %54 to i64
  store i64 %55, ptr %19, align 8, !tbaa !32
  %56 = load i32, ptr %10, align 4, !tbaa !12
  %57 = icmp eq i32 %56, 2
  br i1 %57, label %58, label %61

58:                                               ; preds = %48
  %59 = load i64, ptr %19, align 8, !tbaa !32
  %60 = add i64 1, %59
  br label %65

61:                                               ; preds = %48
  %62 = load i64, ptr %19, align 8, !tbaa !32
  %63 = mul i64 2, %62
  %64 = add i64 1, %63
  br label %65

65:                                               ; preds = %61, %58
  %66 = phi i64 [ %60, %58 ], [ %64, %61 ]
  store i64 %66, ptr %14, align 8, !tbaa !32
  %67 = load ptr, ptr %11, align 8, !tbaa !33
  %68 = icmp ne ptr %67, null
  br i1 %68, label %69, label %208

69:                                               ; preds = %65
  %70 = load i64, ptr %12, align 8, !tbaa !32
  %71 = load i64, ptr %14, align 8, !tbaa !32
  %72 = icmp ult i64 %70, %71
  br i1 %72, label %73, label %74

73:                                               ; preds = %69
  call void @ERR_new()
  call void @ERR_set_debug(ptr noundef @.str, i32 noundef 197, ptr noundef @__func__.ossl_ec_GFp_simple_point2oct)
  call void (i32, i32, ptr, ...) @ERR_set_error(i32 noundef 16, i32 noundef 100, ptr noundef null)
  br label %216

74:                                               ; preds = %69
  %75 = load ptr, ptr %13, align 8, !tbaa !14
  %76 = icmp eq ptr %75, null
  br i1 %76, label %77, label %86

77:                                               ; preds = %74
  %78 = load ptr, ptr %8, align 8, !tbaa !3
  %79 = getelementptr inbounds nuw %struct.ec_group_st, ptr %78, i32 0, i32 21
  %80 = load ptr, ptr %79, align 8, !tbaa !16
  %81 = call ptr @BN_CTX_new_ex(ptr noundef %80)
  store ptr %81, ptr %15, align 8, !tbaa !14
  store ptr %81, ptr %13, align 8, !tbaa !14
  %82 = load ptr, ptr %13, align 8, !tbaa !14
  %83 = icmp eq ptr %82, null
  br i1 %83, label %84, label %85

84:                                               ; preds = %77
  store i64 0, ptr %7, align 8
  store i32 1, ptr %22, align 4
  br label %223

85:                                               ; preds = %77
  br label %86

86:                                               ; preds = %85, %74
  %87 = load ptr, ptr %13, align 8, !tbaa !14
  call void @BN_CTX_start(ptr noundef %87)
  store i32 1, ptr %16, align 4, !tbaa !12
  %88 = load ptr, ptr %13, align 8, !tbaa !14
  %89 = call ptr @BN_CTX_get(ptr noundef %88)
  store ptr %89, ptr %17, align 8, !tbaa !10
  %90 = load ptr, ptr %13, align 8, !tbaa !14
  %91 = call ptr @BN_CTX_get(ptr noundef %90)
  store ptr %91, ptr %18, align 8, !tbaa !10
  %92 = load ptr, ptr %18, align 8, !tbaa !10
  %93 = icmp eq ptr %92, null
  br i1 %93, label %94, label %95

94:                                               ; preds = %86
  br label %216

95:                                               ; preds = %86
  %96 = load ptr, ptr %8, align 8, !tbaa !3
  %97 = load ptr, ptr %9, align 8, !tbaa !8
  %98 = load ptr, ptr %17, align 8, !tbaa !10
  %99 = load ptr, ptr %18, align 8, !tbaa !10
  %100 = load ptr, ptr %13, align 8, !tbaa !14
  %101 = call i32 @EC_POINT_get_affine_coordinates(ptr noundef %96, ptr noundef %97, ptr noundef %98, ptr noundef %99, ptr noundef %100)
  %102 = icmp ne i32 %101, 0
  br i1 %102, label %104, label %103

103:                                              ; preds = %95
  br label %216

104:                                              ; preds = %95
  %105 = load i32, ptr %10, align 4, !tbaa !12
  %106 = icmp eq i32 %105, 2
  br i1 %106, label %110, label %107

107:                                              ; preds = %104
  %108 = load i32, ptr %10, align 4, !tbaa !12
  %109 = icmp eq i32 %108, 6
  br i1 %109, label %110, label %120

110:                                              ; preds = %107, %104
  %111 = load ptr, ptr %18, align 8, !tbaa !10
  %112 = call i32 @BN_is_odd(ptr noundef %111)
  %113 = icmp ne i32 %112, 0
  br i1 %113, label %114, label %120

114:                                              ; preds = %110
  %115 = load i32, ptr %10, align 4, !tbaa !12
  %116 = add i32 %115, 1
  %117 = trunc i32 %116 to i8
  %118 = load ptr, ptr %11, align 8, !tbaa !33
  %119 = getelementptr inbounds i8, ptr %118, i64 0
  store i8 %117, ptr %119, align 1, !tbaa !34
  br label %125

120:                                              ; preds = %110, %107
  %121 = load i32, ptr %10, align 4, !tbaa !12
  %122 = trunc i32 %121 to i8
  %123 = load ptr, ptr %11, align 8, !tbaa !33
  %124 = getelementptr inbounds i8, ptr %123, i64 0
  store i8 %122, ptr %124, align 1, !tbaa !34
  br label %125

125:                                              ; preds = %120, %114
  store i64 1, ptr %20, align 8, !tbaa !32
  %126 = load i64, ptr %19, align 8, !tbaa !32
  %127 = load ptr, ptr %17, align 8, !tbaa !10
  %128 = call i32 @BN_num_bits(ptr noundef %127)
  %129 = add nsw i32 %128, 7
  %130 = sdiv i32 %129, 8
  %131 = sext i32 %130 to i64
  %132 = sub i64 %126, %131
  store i64 %132, ptr %21, align 8, !tbaa !32
  %133 = load i64, ptr %21, align 8, !tbaa !32
  %134 = load i64, ptr %19, align 8, !tbaa !32
  %135 = icmp ugt i64 %133, %134
  br i1 %135, label %136, label %137

136:                                              ; preds = %125
  call void @ERR_new()
  call void @ERR_set_debug(ptr noundef @.str, i32 noundef 227, ptr noundef @__func__.ossl_ec_GFp_simple_point2oct)
  call void (i32, i32, ptr, ...) @ERR_set_error(i32 noundef 16, i32 noundef 786691, ptr noundef null)
  br label %216

137:                                              ; preds = %125
  br label %138

138:                                              ; preds = %141, %137
  %139 = load i64, ptr %21, align 8, !tbaa !32
  %140 = icmp ugt i64 %139, 0
  br i1 %140, label %141, label %148

141:                                              ; preds = %138
  %142 = load ptr, ptr %11, align 8, !tbaa !33
  %143 = load i64, ptr %20, align 8, !tbaa !32
  %144 = add i64 %143, 1
  store i64 %144, ptr %20, align 8, !tbaa !32
  %145 = getelementptr inbounds nuw i8, ptr %142, i64 %143
  store i8 0, ptr %145, align 1, !tbaa !34
  %146 = load i64, ptr %21, align 8, !tbaa !32
  %147 = add i64 %146, -1
  store i64 %147, ptr %21, align 8, !tbaa !32
  br label %138, !llvm.loop !35

148:                                              ; preds = %138
  %149 = load ptr, ptr %17, align 8, !tbaa !10
  %150 = load ptr, ptr %11, align 8, !tbaa !33
  %151 = load i64, ptr %20, align 8, !tbaa !32
  %152 = getelementptr inbounds nuw i8, ptr %150, i64 %151
  %153 = call i32 @BN_bn2bin(ptr noundef %149, ptr noundef %152)
  %154 = sext i32 %153 to i64
  store i64 %154, ptr %21, align 8, !tbaa !32
  %155 = load i64, ptr %21, align 8, !tbaa !32
  %156 = load i64, ptr %20, align 8, !tbaa !32
  %157 = add i64 %156, %155
  store i64 %157, ptr %20, align 8, !tbaa !32
  %158 = load i64, ptr %20, align 8, !tbaa !32
  %159 = load i64, ptr %19, align 8, !tbaa !32
  %160 = add i64 1, %159
  %161 = icmp ne i64 %158, %160
  br i1 %161, label %162, label %163

162:                                              ; preds = %148
  call void @ERR_new()
  call void @ERR_set_debug(ptr noundef @.str, i32 noundef 237, ptr noundef @__func__.ossl_ec_GFp_simple_point2oct)
  call void (i32, i32, ptr, ...) @ERR_set_error(i32 noundef 16, i32 noundef 786691, ptr noundef null)
  br label %216

163:                                              ; preds = %148
  %164 = load i32, ptr %10, align 4, !tbaa !12
  %165 = icmp eq i32 %164, 4
  br i1 %165, label %169, label %166

166:                                              ; preds = %163
  %167 = load i32, ptr %10, align 4, !tbaa !12
  %168 = icmp eq i32 %167, 6
  br i1 %168, label %169, label %202

169:                                              ; preds = %166, %163
  %170 = load i64, ptr %19, align 8, !tbaa !32
  %171 = load ptr, ptr %18, align 8, !tbaa !10
  %172 = call i32 @BN_num_bits(ptr noundef %171)
  %173 = add nsw i32 %172, 7
  %174 = sdiv i32 %173, 8
  %175 = sext i32 %174 to i64
  %176 = sub i64 %170, %175
  store i64 %176, ptr %21, align 8, !tbaa !32
  %177 = load i64, ptr %21, align 8, !tbaa !32
  %178 = load i64, ptr %19, align 8, !tbaa !32
  %179 = icmp ugt i64 %177, %178
  br i1 %179, label %180, label %181

180:                                              ; preds = %169
  call void @ERR_new()
  call void @ERR_set_debug(ptr noundef @.str, i32 noundef 245, ptr noundef @__func__.ossl_ec_GFp_simple_point2oct)
  call void (i32, i32, ptr, ...) @ERR_set_error(i32 noundef 16, i32 noundef 786691, ptr noundef null)
  br label %216

181:                                              ; preds = %169
  br label %182

182:                                              ; preds = %185, %181
  %183 = load i64, ptr %21, align 8, !tbaa !32
  %184 = icmp ugt i64 %183, 0
  br i1 %184, label %185, label %192

185:                                              ; preds = %182
  %186 = load ptr, ptr %11, align 8, !tbaa !33
  %187 = load i64, ptr %20, align 8, !tbaa !32
  %188 = add i64 %187, 1
  store i64 %188, ptr %20, align 8, !tbaa !32
  %189 = getelementptr inbounds nuw i8, ptr %186, i64 %187
  store i8 0, ptr %189, align 1, !tbaa !34
  %190 = load i64, ptr %21, align 8, !tbaa !32
  %191 = add i64 %190, -1
  store i64 %191, ptr %21, align 8, !tbaa !32
  br label %182, !llvm.loop !37

192:                                              ; preds = %182
  %193 = load ptr, ptr %18, align 8, !tbaa !10
  %194 = load ptr, ptr %11, align 8, !tbaa !33
  %195 = load i64, ptr %20, align 8, !tbaa !32
  %196 = getelementptr inbounds nuw i8, ptr %194, i64 %195
  %197 = call i32 @BN_bn2bin(ptr noundef %193, ptr noundef %196)
  %198 = sext i32 %197 to i64
  store i64 %198, ptr %21, align 8, !tbaa !32
  %199 = load i64, ptr %21, align 8, !tbaa !32
  %200 = load i64, ptr %20, align 8, !tbaa !32
  %201 = add i64 %200, %199
  store i64 %201, ptr %20, align 8, !tbaa !32
  br label %202

202:                                              ; preds = %192, %166
  %203 = load i64, ptr %20, align 8, !tbaa !32
  %204 = load i64, ptr %14, align 8, !tbaa !32
  %205 = icmp ne i64 %203, %204
  br i1 %205, label %206, label %207

206:                                              ; preds = %202
  call void @ERR_new()
  call void @ERR_set_debug(ptr noundef @.str, i32 noundef 257, ptr noundef @__func__.ossl_ec_GFp_simple_point2oct)
  call void (i32, i32, ptr, ...) @ERR_set_error(i32 noundef 16, i32 noundef 786691, ptr noundef null)
  br label %216

207:                                              ; preds = %202
  br label %208

208:                                              ; preds = %207, %65
  %209 = load i32, ptr %16, align 4, !tbaa !12
  %210 = icmp ne i32 %209, 0
  br i1 %210, label %211, label %213

211:                                              ; preds = %208
  %212 = load ptr, ptr %13, align 8, !tbaa !14
  call void @BN_CTX_end(ptr noundef %212)
  br label %213

213:                                              ; preds = %211, %208
  %214 = load ptr, ptr %15, align 8, !tbaa !14
  call void @BN_CTX_free(ptr noundef %214)
  %215 = load i64, ptr %14, align 8, !tbaa !32
  store i64 %215, ptr %7, align 8
  store i32 1, ptr %22, align 4
  br label %223

216:                                              ; preds = %206, %180, %162, %136, %103, %94, %73, %31
  %217 = load i32, ptr %16, align 4, !tbaa !12
  %218 = icmp ne i32 %217, 0
  br i1 %218, label %219, label %221

219:                                              ; preds = %216
  %220 = load ptr, ptr %13, align 8, !tbaa !14
  call void @BN_CTX_end(ptr noundef %220)
  br label %221

221:                                              ; preds = %219, %216
  %222 = load ptr, ptr %15, align 8, !tbaa !14
  call void @BN_CTX_free(ptr noundef %222)
  store i64 0, ptr %7, align 8
  store i32 1, ptr %22, align 4
  br label %223

223:                                              ; preds = %221, %213, %84, %47, %43
  call void @llvm.lifetime.end.p0(i64 8, ptr %21) #4
  call void @llvm.lifetime.end.p0(i64 8, ptr %20) #4
  call void @llvm.lifetime.end.p0(i64 8, ptr %19) #4
  call void @llvm.lifetime.end.p0(i64 8, ptr %18) #4
  call void @llvm.lifetime.end.p0(i64 8, ptr %17) #4
  call void @llvm.lifetime.end.p0(i64 4, ptr %16) #4
  call void @llvm.lifetime.end.p0(i64 8, ptr %15) #4
  call void @llvm.lifetime.end.p0(i64 8, ptr %14) #4
  %224 = load i64, ptr %7, align 8
  ret i64 %224
}