; Function Attrs: nounwind uwtable
define range(i64 -536870909, 536870912) i64 @ossl_ec_GFp_simple_point2oct(ptr noundef %0, ptr noundef %1, i32 noundef %2, ptr noundef %3, i64 noundef %4, ptr noundef %5) local_unnamed_addr #0 {
  switch i32 %2, label %7 [
    i32 6, label %8
    i32 4, label %8
    i32 2, label %8
  ]

7:                                                ; preds = %6
  tail call void @ERR_new() #3
  tail call void @ERR_set_debug(ptr noundef nonnull @.str, i32 noundef 172, ptr noundef nonnull @__func__.ossl_ec_GFp_simple_point2oct) #3
  tail call void (i32, i32, ptr, ...) @ERR_set_error(i32 noundef 16, i32 noundef 104, ptr noundef null) #3
  br label %74

8:                                                ; preds = %6, %6, %6
  %9 = tail call i32 @EC_POINT_is_at_infinity(ptr noundef %0, ptr noundef %1) #3
  %.not = icmp eq i32 %9, 0
  br i1 %.not, label %15, label %10

10:                                               ; preds = %8
  %.not110 = icmp eq ptr %3, null
  br i1 %.not110, label %75, label %11

11:                                               ; preds = %10
  %12 = icmp eq i64 %4, 0
  br i1 %12, label %13, label %14

13:                                               ; preds = %11
  tail call void @ERR_new() #3
  tail call void @ERR_set_debug(ptr noundef nonnull @.str, i32 noundef 180, ptr noundef nonnull @__func__.ossl_ec_GFp_simple_point2oct) #3
  tail call void (i32, i32, ptr, ...) @ERR_set_error(i32 noundef 16, i32 noundef 100, ptr noundef null) #3
  br label %75

14:                                               ; preds = %11
  store i8 0, ptr %3, align 1, !tbaa !25
  br label %75

15:                                               ; preds = %8
  %16 = getelementptr inbounds nuw i8, ptr %0, i64 64
  %17 = load ptr, ptr %16, align 8, !tbaa !16
  %18 = tail call i32 @BN_num_bits(ptr noundef %17) #3
  %19 = add nsw i32 %18, 7
  %20 = sdiv i32 %19, 8
  %21 = sext i32 %20 to i64
  %22 = icmp eq i32 %2, 2
  %23 = add nsw i64 %21, 1
  %24 = shl nsw i64 %21, 1
  %25 = or disjoint i64 %24, 1
  %26 = select i1 %22, i64 %23, i64 %25
  %.not100 = icmp eq ptr %3, null
  br i1 %.not100, label %.thread, label %27

27:                                               ; preds = %15
  %28 = icmp ult i64 %4, %26
  br i1 %28, label %29, label %30

29:                                               ; preds = %27
  tail call void @ERR_new() #3
  tail call void @ERR_set_debug(ptr noundef nonnull @.str, i32 noundef 197, ptr noundef nonnull @__func__.ossl_ec_GFp_simple_point2oct) #3
  tail call void (i32, i32, ptr, ...) @ERR_set_error(i32 noundef 16, i32 noundef 100, ptr noundef null) #3
  br label %74

30:                                               ; preds = %27
  %31 = icmp eq ptr %5, null
  br i1 %31, label %32, label %37

32:                                               ; preds = %30
  %33 = getelementptr inbounds nuw i8, ptr %0, i64 168
  %34 = load ptr, ptr %33, align 8, !tbaa !3
  %35 = tail call ptr @BN_CTX_new_ex(ptr noundef %34) #3
  %36 = icmp eq ptr %35, null
  br i1 %36, label %75, label %37

37:                                               ; preds = %32, %30
  %.288 = phi ptr [ %35, %32 ], [ null, %30 ]
  %.285 = phi ptr [ %35, %32 ], [ %5, %30 ]
  tail call void @BN_CTX_start(ptr noundef nonnull %.285) #3
  %38 = tail call ptr @BN_CTX_get(ptr noundef nonnull %.285) #3
  %39 = tail call ptr @BN_CTX_get(ptr noundef nonnull %.285) #3
  %40 = icmp eq ptr %39, null
  br i1 %40, label %73, label %41

41:                                               ; preds = %37
  %42 = tail call i32 @EC_POINT_get_affine_coordinates(ptr noundef nonnull %0, ptr noundef %1, ptr noundef %38, ptr noundef nonnull %39, ptr noundef nonnull %.285) #3
  %.not101 = icmp eq i32 %42, 0
  br i1 %.not101, label %73, label %43

43:                                               ; preds = %41
  switch i32 %2, label %47 [
    i32 6, label %44
    i32 2, label %44
  ]

44:                                               ; preds = %43, %43
  %45 = tail call i32 @BN_is_odd(ptr noundef nonnull %39) #3
  %.not102 = icmp ne i32 %45, 0
  %46 = zext i1 %.not102 to i32
  %spec.select = or disjoint i32 %2, %46
  br label %47

47:                                               ; preds = %44, %43
  %storemerge.in = phi i32 [ %2, %43 ], [ %spec.select, %44 ]
  %storemerge = trunc i32 %storemerge.in to i8
  store i8 %storemerge, ptr %3, align 1, !tbaa !25
  %48 = tail call i32 @BN_num_bits(ptr noundef %38) #3
  %49 = add nsw i32 %48, 7
  %.neg = sdiv i32 %49, -8
  %narrow = add nsw i32 %.neg, %20
  %50 = icmp ugt i32 %narrow, %20
  br i1 %50, label %.sink.split, label %.preheader122

.preheader122:                                    ; preds = %47
  %.not103123 = icmp eq i32 %narrow, 0
  br i1 %.not103123, label %._crit_edge, label %.lr.ph.preheader

.lr.ph.preheader:                                 ; preds = %.preheader122
  %51 = sext i32 %narrow to i64
  %scevgep = getelementptr i8, ptr %3, i64 1
  tail call void @llvm.memset.p0.i64(ptr align 1 %scevgep, i8 0, i64 %51, i1 false), !tbaa !25
  %narrow134 = add nsw i32 %20, %.neg
  %52 = sext i32 %narrow134 to i64
  %53 = add nsw i64 %52, 1
  br label %._crit_edge

._crit_edge:                                      ; preds = %.lr.ph.preheader, %.preheader122
  %.080.lcssa = phi i64 [ 1, %.preheader122 ], [ %53, %.lr.ph.preheader ]
  %54 = getelementptr inbounds nuw i8, ptr %3, i64 %.080.lcssa
  %55 = tail call i32 @BN_bn2bin(ptr noundef %38, ptr noundef nonnull %54) #3
  %56 = sext i32 %55 to i64
  %57 = add nsw i64 %.080.lcssa, %56
  %.not104 = icmp eq i64 %57, %23
  br i1 %.not104, label %58, label %.sink.split

58:                                               ; preds = %._crit_edge
  switch i32 %2, label %71 [
    i32 6, label %59
    i32 4, label %59
  ]

59:                                               ; preds = %58, %58
  %60 = tail call i32 @BN_num_bits(ptr noundef nonnull %39) #3
  %61 = add nsw i32 %60, 7
  %.neg106 = sdiv i32 %61, -8
  %narrow105 = add nsw i32 %.neg106, %20
  %62 = icmp ugt i32 %narrow105, %20
  br i1 %62, label %.sink.split, label %.preheader

.preheader:                                       ; preds = %59
  %.not107126 = icmp eq i32 %narrow105, 0
  br i1 %.not107126, label %._crit_edge130, label %.lr.ph129.preheader

.lr.ph129.preheader:                              ; preds = %.preheader
  %63 = sext i32 %narrow105 to i64
  %scevgep133 = getelementptr i8, ptr %3, i64 %23
  tail call void @llvm.memset.p0.i64(ptr align 1 %scevgep133, i8 0, i64 %63, i1 false), !tbaa !25
  %64 = sext i32 %.neg106 to i64
  %65 = add nsw i64 %23, %21
  %66 = add nsw i64 %65, %64
  br label %._crit_edge130

._crit_edge130:                                   ; preds = %.lr.ph129.preheader, %.preheader
  %.2.lcssa = phi i64 [ %23, %.preheader ], [ %66, %.lr.ph129.preheader ]
  %67 = getelementptr inbounds nuw i8, ptr %3, i64 %.2.lcssa
  %68 = tail call i32 @BN_bn2bin(ptr noundef nonnull %39, ptr noundef nonnull %67) #3
  %69 = sext i32 %68 to i64
  %70 = add nsw i64 %.2.lcssa, %69
  br label %71

71:                                               ; preds = %58, %._crit_edge130
  %.181 = phi i64 [ %70, %._crit_edge130 ], [ %23, %58 ]
  %.not108 = icmp eq i64 %.181, %26
  br i1 %.not108, label %72, label %.sink.split

72:                                               ; preds = %71
  tail call void @BN_CTX_end(ptr noundef nonnull %.285) #3
  br label %.thread

.thread:                                          ; preds = %15, %72
  %.187114 = phi ptr [ %.288, %72 ], [ null, %15 ]
  tail call void @BN_CTX_free(ptr noundef %.187114) #3
  br label %75

.sink.split:                                      ; preds = %71, %59, %._crit_edge, %47
  %.sink = phi i32 [ 227, %47 ], [ 237, %._crit_edge ], [ 245, %59 ], [ 257, %71 ]
  tail call void @ERR_new() #3
  tail call void @ERR_set_debug(ptr noundef nonnull @.str, i32 noundef %.sink, ptr noundef nonnull @__func__.ossl_ec_GFp_simple_point2oct) #3
  tail call void (i32, i32, ptr, ...) @ERR_set_error(i32 noundef 16, i32 noundef 786691, ptr noundef null) #3
  br label %73

73:                                               ; preds = %.sink.split, %37, %41
  tail call void @BN_CTX_end(ptr noundef nonnull %.285) #3
  br label %74

74:                                               ; preds = %7, %29, %73
  %.086120 = phi ptr [ %.288, %73 ], [ null, %7 ], [ null, %29 ]
  tail call void @BN_CTX_free(ptr noundef %.086120) #3
  br label %75

75:                                               ; preds = %32, %10, %14, %74, %.thread, %13
  %.082 = phi i64 [ 0, %74 ], [ 0, %13 ], [ %26, %.thread ], [ 1, %14 ], [ 1, %10 ], [ 0, %32 ]
  ret i64 %.082
}